target datalayout = "e-m:e-p270:32:32-p271:32:32-p272:64:64-i64:64-i128:128-f80:128-n8:16:32:64-S128"
target triple = "x86_64-pc-linux-gnu"

%"class.pxrInternal_v0_24__pxrReserved__::GfVec4f" = type { [4 x float] }

; Function Attrs: mustprogress nounwind uwtable
define linkonce_odr void @_ZN32pxrInternal_v0_24__pxrReserved__7GfVec4fC2Effff(ptr noundef nonnull align 4 dereferenceable(16) %0, float noundef %1, float noundef %2, float noundef %3, float noundef %4) unnamed_addr #0 comdat align 2 {
  %6 = alloca ptr, align 8
  %7 = alloca float, align 4
  %8 = alloca float, align 4
  %9 = alloca float, align 4
  %10 = alloca float, align 4
  store ptr %0, ptr %6, align 8
  store float %1, ptr %7, align 4
  store float %2, ptr %8, align 4
  store float %3, ptr %9, align 4
  store float %4, ptr %10, align 4
  %11 = load ptr, ptr %6, align 8
  %12 = getelementptr inbounds nuw %"class.pxrInternal_v0_24__pxrReserved__::GfVec4f", ptr %11, i32 0, i32 0
  %13 = load float, ptr %7, align 4
  store float %13, ptr %12, align 4
  %14 = getelementptr inbounds float, ptr %12, i64 1
  %15 = load float, ptr %8, align 4
  store float %15, ptr %14, align 4
  %16 = getelementptr inbounds float, ptr %12, i64 2
  %17 = load float, ptr %9, align 4
  store float %17, ptr %16, align 4
  %18 = getelementptr inbounds float, ptr %12, i64 3
  %19 = load float, ptr %10, align 4
  store float %19, ptr %18, align 4
  ret void
}

; Function Attrs: mustprogress nounwind uwtable
define linkonce_odr noundef double @_ZSt3powIfdEN9__gnu_cxx9__promoteIDTplcvNS1_IT_Xsr3std12__is_integerIS2_EE7__valueEE6__typeELi0EcvNS1_IT0_Xsr3std12__is_integerIS5_EE7__valueEE6__typeELi0EEXsr3std12__is_integerIS8_EE7__valueEE6__typeES2_S5_(float noundef %0, double noundef %1) #0 comdat {
  %3 = alloca float, align 4
  %4 = alloca double, align 8
  store float %0, ptr %3, align 4
  store double %1, ptr %4, align 8
  %5 = load float, ptr %3, align 4
  %6 = fpext float %5 to double
  %7 = load double, ptr %4, align 8
  %8 = call double @pow(double noundef %6, double noundef %7) #6
  ret double %8
}

; Function Attrs: mustprogress nounwind uwtable
define linkonce_odr noundef nonnull align 4 dereferenceable(4) ptr @_ZNK32pxrInternal_v0_24__pxrReserved__7GfVec4fixEm(ptr noundef nonnull align 4 dereferenceable(16) %0, i64 noundef %1) #0 comdat align 2 {
  %3 = alloca ptr, align 8
  %4 = alloca i64, align 8
  store ptr %0, ptr %3, align 8
  store i64 %1, ptr %4, align 8
  %5 = load ptr, ptr %3, align 8
  %6 = getelementptr inbounds nuw %"class.pxrInternal_v0_24__pxrReserved__::GfVec4f", ptr %5, i32 0, i32 0
  %7 = load i64, ptr %4, align 8
  %8 = getelementptr inbounds [4 x float], ptr %6, i64 0, i64 %7
  ret ptr %8
}

; Function Attrs: mustprogress uwtable
define { <2 x float>, <2 x float> } @_ZN32pxrInternal_v0_24__pxrReserved__12GfApplyGammaERKNS_7GfVec4fEd(ptr noundef nonnull align 4 dereferenceable(16) %0, double noundef %1) #1 {
  %3 = alloca %"class.pxrInternal_v0_24__pxrReserved__::GfVec4f", align 4
  %4 = alloca ptr, align 8
  %5 = alloca double, align 8
  store ptr %0, ptr %4, align 8
  store double %1, ptr %5, align 8
  %6 = load ptr, ptr %4, align 8
  %7 = call noundef nonnull align 4 dereferenceable(4) ptr @_ZNK32pxrInternal_v0_24__pxrReserved__7GfVec4fixEm(ptr noundef nonnull align 4 dereferenceable(16) %6, i64 noundef 0)
  %8 = load float, ptr %7, align 4
  %9 = load double, ptr %5, align 8
  %10 = call noundef double @_ZSt3powIfdEN9__gnu_cxx9__promoteIDTplcvNS1_IT_Xsr3std12__is_integerIS2_EE7__valueEE6__typeELi0EcvNS1_IT0_Xsr3std12__is_integerIS5_EE7__valueEE6__typeELi0EEXsr3std12__is_integerIS8_EE7__valueEE6__typeES2_S5_(float noundef %8, double noundef %9)
  %11 = fptrunc double %10 to float
  %12 = load ptr, ptr %4, align 8
  %13 = call noundef nonnull align 4 dereferenceable(4) ptr @_ZNK32pxrInternal_v0_24__pxrReserved__7GfVec4fixEm(ptr noundef nonnull align 4 dereferenceable(16) %12, i64 noundef 1)
  %14 = load float, ptr %13, align 4
  %15 = load double, ptr %5, align 8
  %16 = call noundef double @_ZSt3powIfdEN9__gnu_cxx9__promoteIDTplcvNS1_IT_Xsr3std12__is_integerIS2_EE7__valueEE6__typeELi0EcvNS1_IT0_Xsr3std12__is_integerIS5_EE7__valueEE6__typeELi0EEXsr3std12__is_integerIS8_EE7__valueEE6__typeES2_S5_(float noundef %14, double noundef %15)
  %17 = fptrunc double %16 to float
  %18 = load ptr, ptr %4, align 8
  %19 = call noundef nonnull align 4 dereferenceable(4) ptr @_ZNK32pxrInternal_v0_24__pxrReserved__7GfVec4fixEm(ptr noundef nonnull align 4 dereferenceable(16) %18, i64 noundef 2)
  %20 = load float, ptr %19, align 4
  %21 = load double, ptr %5, align 8
  %22 = call noundef double @_ZSt3powIfdEN9__gnu_cxx9__promoteIDTplcvNS1_IT_Xsr3std12__is_integerIS2_EE7__valueEE6__typeELi0EcvNS1_IT0_Xsr3std12__is_integerIS5_EE7__valueEE6__typeELi0EEXsr3std12__is_integerIS8_EE7__valueEE6__typeES2_S5_(float noundef %20, double noundef %21)
  %23 = fptrunc double %22 to float
  %24 = load ptr, ptr %4, align 8
  %25 = call noundef nonnull align 4 dereferenceable(4) ptr @_ZNK32pxrInternal_v0_24__pxrReserved__7GfVec4fixEm(ptr noundef nonnull align 4 dereferenceable(16) %24, i64 noundef 3)
  %26 = load float, ptr %25, align 4
  call void @_ZN32pxrInternal_v0_24__pxrReserved__7GfVec4fC2Effff(ptr noundef nonnull align 4 dereferenceable(16) %3, float noundef %11, float noundef %17, float noundef %23, float noundef %26)
  %27 = getelementptr inbounds nuw %"class.pxrInternal_v0_24__pxrReserved__::GfVec4f", ptr %3, i32 0, i32 0
  %28 = load { <2 x float>, <2 x float> }, ptr %27, align 4
  ret { <2 x float>, <2 x float> } %28
}

; Function Attrs: mustprogress uwtable
define internal { <2 x float>, <2 x float> } @_ZN32pxrInternal_v0_24__pxrReserved__L25Gf_ConvertDisplayToLinearINS_7GfVec4fEEET_RKS2_(ptr noundef nonnull align 4 dereferenceable(16) %0) #4 {
  %2 = alloca %"class.pxrInternal_v0_24__pxrReserved__::GfVec4f", align 4
  %3 = alloca ptr, align 8
  store ptr %0, ptr %3, align 8
  %4 = load ptr, ptr %3, align 8
  %5 = call { <2 x float>, <2 x float> } @_ZN32pxrInternal_v0_24__pxrReserved__12GfApplyGammaERKNS_7GfVec4fEd(ptr noundef nonnull align 4 dereferenceable(16) %4, double noundef 2.200000e+00)
  %6 = getelementptr inbounds nuw %"class.pxrInternal_v0_24__pxrReserved__::GfVec4f", ptr %2, i32 0, i32 0
  %7 = getelementptr inbounds nuw { <2 x float>, <2 x float> }, ptr %6, i32 0, i32 0
  %8 = extractvalue { <2 x float>, <2 x float> } %5, 0
  store <2 x float> %8, ptr %7, align 4
  %9 = getelementptr inbounds nuw { <2 x float>, <2 x float> }, ptr %6, i32 0, i32 1
  %10 = extractvalue { <2 x float>, <2 x float> } %5, 1
  store <2 x float> %10, ptr %9, align 4
  %11 = getelementptr inbounds nuw %"class.pxrInternal_v0_24__pxrReserved__::GfVec4f", ptr %2, i32 0, i32 0
  %12 = load { <2 x float>, <2 x float> }, ptr %11, align 4
  ret { <2 x float>, <2 x float> } %12
}

; Function Attrs: mustprogress uwtable
define { <2 x float>, <2 x float> } @_ZN32pxrInternal_v0_24__pxrReserved__24GfConvertDisplayToLinearERKNS_7GfVec4fE(ptr noundef nonnull align 4 dereferenceable(16) %0) #4 {
  %2 = alloca %"class.pxrInternal_v0_24__pxrReserved__::GfVec4f", align 4
  %3 = alloca ptr, align 8
  store ptr %0, ptr %3, align 8
  %4 = load ptr, ptr %3, align 8
  %5 = call { <2 x float>, <2 x float> } @_ZN32pxrInternal_v0_24__pxrReserved__L25Gf_ConvertDisplayToLinearINS_7GfVec4fEEET_RKS2_(ptr noundef nonnull align 4 dereferenceable(16) %4)
  %6 = getelementptr inbounds nuw %"class.pxrInternal_v0_24__pxrReserved__::GfVec4f", ptr %2, i32 0, i32 0
  %7 = getelementptr inbounds nuw { <2 x float>, <2 x float> }, ptr %6, i32 0, i32 0
  %8 = extractvalue { <2 x float>, <2 x float> } %5, 0
  store <2 x float> %8, ptr %7, align 4
  %9 = getelementptr inbounds nuw { <2 x float>, <2 x float> }, ptr %6, i32 0, i32 1
  %10 = extractvalue { <2 x float>, <2 x float> } %5, 1
  store <2 x float> %10, ptr %9, align 4
  %11 = getelementptr inbounds nuw %"class.pxrInternal_v0_24__pxrReserved__::GfVec4f", ptr %2, i32 0, i32 0
  %12 = load { <2 x float>, <2 x float> }, ptr %11, align 4
  ret { <2 x float>, <2 x float> } %12
}