; Function Attrs: mustprogress nofree nounwind willreturn memory(write, argmem: readwrite) uwtable
define { <2 x float>, <2 x float> } @_ZN32pxrInternal_v0_24__pxrReserved__24GfConvertDisplayToLinearERKNS_7GfVec4fE(ptr noundef nonnull readonly align 4 captures(none) dereferenceable(16) %0) local_unnamed_addr #4 {
  %2 = load float, ptr %0, align 4
  %3 = fpext float %2 to double
  %4 = tail call noundef double @pow(double noundef %3, double noundef 2.200000e+00) #8
  %5 = fptrunc double %4 to float
  %6 = getelementptr inbounds nuw i8, ptr %0, i64 4
  %7 = load float, ptr %6, align 4
  %8 = fpext float %7 to double
  %9 = tail call noundef double @pow(double noundef %8, double noundef 2.200000e+00) #8
  %10 = fptrunc double %9 to float
  %11 = getelementptr inbounds nuw i8, ptr %0, i64 8
  %12 = load float, ptr %11, align 4
  %13 = fpext float %12 to double
  %14 = tail call noundef double @pow(double noundef %13, double noundef 2.200000e+00) #8
  %15 = fptrunc double %14 to float
  %16 = getelementptr inbounds nuw i8, ptr %0, i64 12
  %17 = load float, ptr %16, align 4
  %.sroa.0.0.vec.insert.i.i = insertelement <2 x float> poison, float %5, i64 0
  %.sroa.0.4.vec.insert.i.i = insertelement <2 x float> %.sroa.0.0.vec.insert.i.i, float %10, i64 1
  %.sroa.3.8.vec.insert.i.i = insertelement <2 x float> poison, float %15, i64 0
  %.sroa.3.12.vec.insert.i.i = insertelement <2 x float> %.sroa.3.8.vec.insert.i.i, float %17, i64 1
  %.fca.0.insert.i.i = insertvalue { <2 x float>, <2 x float> } poison, <2 x float> %.sroa.0.4.vec.insert.i.i, 0
  %.fca.1.insert.i.i = insertvalue { <2 x float>, <2 x float> } %.fca.0.insert.i.i, <2 x float> %.sroa.3.12.vec.insert.i.i, 1
  ret { <2 x float>, <2 x float> } %.fca.1.insert.i.i
}